target datalayout = "e-m:e-p270:32:32-p271:32:32-p272:64:64-i64:64-i128:128-f80:128-n8:16:32:64-S128"
target triple = "x86_64-pc-linux-gnu"

%"class.llvm::StringRef" = type { ptr, i64 }
%"class.clang::format::IntegerLiteralSeparatorFixer" = type { i8 }
%"class.llvm::iterator_range" = type { %"class.std::reverse_iterator", %"class.std::reverse_iterator" }
%"class.std::reverse_iterator" = type { ptr }

; Function Attrs: mustprogress nounwind uwtable
define linkonce_odr hidden void @_ZNSt16reverse_iteratorIPKcEC2ES1_(ptr noundef nonnull align 8 dereferenceable(8) %0, ptr noundef %1) unnamed_addr #0 comdat align 2 {
  %3 = alloca ptr, align 8
  %4 = alloca ptr, align 8
  store ptr %0, ptr %3, align 8
  store ptr %1, ptr %4, align 8
  %5 = load ptr, ptr %3, align 8
  %6 = getelementptr inbounds nuw %"class.std::reverse_iterator", ptr %5, i32 0, i32 0
  %7 = load ptr, ptr %4, align 8
  store ptr %7, ptr %6, align 8
  ret void
}

; Function Attrs: mustprogress nounwind uwtable
define linkonce_odr hidden noundef ptr @_ZNK4llvm9StringRef5beginEv(ptr noundef nonnull align 8 dereferenceable(16) %0) #0 comdat align 2 {
  %2 = alloca ptr, align 8
  store ptr %0, ptr %2, align 8
  %3 = load ptr, ptr %2, align 8
  %4 = getelementptr inbounds nuw %"class.llvm::StringRef", ptr %3, i32 0, i32 0
  %5 = load ptr, ptr %4, align 8
  ret ptr %5
}

; Function Attrs: mustprogress nounwind uwtable
define linkonce_odr void @_ZSt21make_reverse_iteratorIPKcESt16reverse_iteratorIT_ES3_(ptr dead_on_unwind noalias writable sret(%"class.std::reverse_iterator") align 8 %0, ptr noundef %1) #0 comdat {
  %3 = alloca ptr, align 8
  %4 = alloca ptr, align 8
  store ptr %0, ptr %3, align 8
  store ptr %1, ptr %4, align 8
  %5 = load ptr, ptr %4, align 8
  call void @_ZNSt16reverse_iteratorIPKcEC2ES1_(ptr noundef nonnull align 8 dereferenceable(8) %0, ptr noundef %5) #9
  ret void
}

; Function Attrs: mustprogress nounwind uwtable
define linkonce_odr hidden noundef ptr @_ZNK4llvm9StringRef3endEv(ptr noundef nonnull align 8 dereferenceable(16) %0) #0 comdat align 2 {
  %2 = alloca ptr, align 8
  store ptr %0, ptr %2, align 8
  %3 = load ptr, ptr %2, align 8
  %4 = getelementptr inbounds nuw %"class.llvm::StringRef", ptr %3, i32 0, i32 0
  %5 = load ptr, ptr %4, align 8
  %6 = getelementptr inbounds nuw %"class.llvm::StringRef", ptr %3, i32 0, i32 1
  %7 = load i64, ptr %6, align 8
  %8 = getelementptr inbounds i8, ptr %5, i64 %7
  ret ptr %8
}

; Function Attrs: mustprogress nounwind uwtable
define linkonce_odr hidden void @_ZNK4llvm9StringRef4rendEv(ptr dead_on_unwind noalias writable sret(%"class.std::reverse_iterator") align 8 %0, ptr noundef nonnull align 8 dereferenceable(16) %1) #0 comdat align 2 {
  %3 = alloca ptr, align 8
  %4 = alloca ptr, align 8
  store ptr %0, ptr %3, align 8
  store ptr %1, ptr %4, align 8
  %5 = load ptr, ptr %4, align 8
  %6 = call noundef ptr @_ZNK4llvm9StringRef5beginEv(ptr noundef nonnull align 8 dereferenceable(16) %5)
  call void @_ZSt21make_reverse_iteratorIPKcESt16reverse_iteratorIT_ES3_(ptr dead_on_unwind writable sret(%"class.std::reverse_iterator") align 8 %0, ptr noundef %6)
  ret void
}

; Function Attrs: mustprogress nounwind uwtable
define linkonce_odr hidden void @_ZNK4llvm9StringRef6rbeginEv(ptr dead_on_unwind noalias writable sret(%"class.std::reverse_iterator") align 8 %0, ptr noundef nonnull align 8 dereferenceable(16) %1) #0 comdat align 2 {
  %3 = alloca ptr, align 8
  %4 = alloca ptr, align 8
  store ptr %0, ptr %3, align 8
  store ptr %1, ptr %4, align 8
  %5 = load ptr, ptr %4, align 8
  %6 = call noundef ptr @_ZNK4llvm9StringRef3endEv(ptr noundef nonnull align 8 dereferenceable(16) %5)
  call void @_ZSt21make_reverse_iteratorIPKcESt16reverse_iteratorIT_ES3_(ptr dead_on_unwind writable sret(%"class.std::reverse_iterator") align 8 %0, ptr noundef %6)
  ret void
}

; Function Attrs: mustprogress nounwind uwtable
define linkonce_odr void @_ZSt4rendIN4llvm9StringRefEEDTcldtfp_4rendEERKT_(ptr dead_on_unwind noalias writable sret(%"class.std::reverse_iterator") align 8 %0, ptr noundef nonnull align 8 dereferenceable(16) %1) #0 comdat {
  %3 = alloca ptr, align 8
  %4 = alloca ptr, align 8
  store ptr %0, ptr %3, align 8
  store ptr %1, ptr %4, align 8
  %5 = load ptr, ptr %4, align 8
  call void @_ZNK4llvm9StringRef4rendEv(ptr dead_on_unwind writable sret(%"class.std::reverse_iterator") align 8 %0, ptr noundef nonnull align 8 dereferenceable(16) %5)
  ret void
}

; Function Attrs: mustprogress nounwind uwtable
define linkonce_odr void @_ZSt6rbeginIN4llvm9StringRefEEDTcldtfp_6rbeginEERKT_(ptr dead_on_unwind noalias writable sret(%"class.std::reverse_iterator") align 8 %0, ptr noundef nonnull align 8 dereferenceable(16) %1) #0 comdat {
  %3 = alloca ptr, align 8
  %4 = alloca ptr, align 8
  store ptr %0, ptr %3, align 8
  store ptr %1, ptr %4, align 8
  %5 = load ptr, ptr %4, align 8
  call void @_ZNK4llvm9StringRef6rbeginEv(ptr dead_on_unwind writable sret(%"class.std::reverse_iterator") align 8 %0, ptr noundef nonnull align 8 dereferenceable(16) %5)
  ret void
}

; Function Attrs: mustprogress nounwind uwtable
define linkonce_odr hidden noundef ptr @_ZNKSt16reverse_iteratorIPKcE4baseEv(ptr noundef nonnull align 8 dereferenceable(8) %0) #0 comdat align 2 {
  %2 = alloca ptr, align 8
  store ptr %0, ptr %2, align 8
  %3 = load ptr, ptr %2, align 8
  %4 = getelementptr inbounds nuw %"class.std::reverse_iterator", ptr %3, i32 0, i32 0
  %5 = load ptr, ptr %4, align 8
  ret ptr %5
}

; Function Attrs: mustprogress nounwind uwtable
define linkonce_odr hidden void @_ZN4llvm14iterator_rangeISt16reverse_iteratorIPKcEEC2ES4_S4_(ptr noundef nonnull align 8 dereferenceable(16) %0, ptr noundef %1, ptr noundef %2) unnamed_addr #0 comdat align 2 {
  %4 = alloca ptr, align 8
  %5 = alloca ptr, align 8
  %6 = alloca ptr, align 8
  store ptr %0, ptr %4, align 8
  store ptr %1, ptr %5, align 8
  store ptr %2, ptr %6, align 8
  %7 = load ptr, ptr %4, align 8
  %8 = getelementptr inbounds nuw %"class.llvm::iterator_range", ptr %7, i32 0, i32 0
  call void @_ZNSt16reverse_iteratorIPKcEC2ERKS2_(ptr noundef nonnull align 8 dereferenceable(8) %8, ptr noundef nonnull align 8 dereferenceable(8) %1) #9
  %9 = getelementptr inbounds nuw %"class.llvm::iterator_range", ptr %7, i32 0, i32 1
  call void @_ZNSt16reverse_iteratorIPKcEC2ERKS2_(ptr noundef nonnull align 8 dereferenceable(8) %9, ptr noundef nonnull align 8 dereferenceable(8) %2) #9
  ret void
}

; Function Attrs: mustprogress nounwind uwtable
define linkonce_odr hidden void @_ZN4llvm10adl_detail9rend_implIRKNS_9StringRefEEEDTcl4rendclsr3stdE7forwardIT_Efp_EEEOS5_(ptr dead_on_unwind noalias writable sret(%"class.std::reverse_iterator") align 8 %0, ptr noundef nonnull align 8 dereferenceable(16) %1) #0 comdat {
  %3 = alloca ptr, align 8
  %4 = alloca ptr, align 8
  store ptr %0, ptr %3, align 8
  store ptr %1, ptr %4, align 8
  %5 = load ptr, ptr %4, align 8
  call void @_ZSt4rendIN4llvm9StringRefEEDTcldtfp_4rendEERKT_(ptr dead_on_unwind writable sret(%"class.std::reverse_iterator") align 8 %0, ptr noundef nonnull align 8 dereferenceable(16) %5)
  ret void
}

; Function Attrs: mustprogress nounwind uwtable
define linkonce_odr hidden void @_ZN4llvm10adl_detail11rbegin_implIRKNS_9StringRefEEEDTcl6rbeginclsr3stdE7forwardIT_Efp_EEEOS5_(ptr dead_on_unwind noalias writable sret(%"class.std::reverse_iterator") align 8 %0, ptr noundef nonnull align 8 dereferenceable(16) %1) #0 comdat {
  %3 = alloca ptr, align 8
  %4 = alloca ptr, align 8
  store ptr %0, ptr %3, align 8
  store ptr %1, ptr %4, align 8
  %5 = load ptr, ptr %4, align 8
  call void @_ZSt6rbeginIN4llvm9StringRefEEDTcldtfp_6rbeginEERKT_(ptr dead_on_unwind writable sret(%"class.std::reverse_iterator") align 8 %0, ptr noundef nonnull align 8 dereferenceable(16) %5)
  ret void
}

; Function Attrs: mustprogress nounwind uwtable
define linkonce_odr noundef zeroext i1 @_ZSteqIPKcEbRKSt16reverse_iteratorIT_ES6_(ptr noundef nonnull align 8 dereferenceable(8) %0, ptr noundef nonnull align 8 dereferenceable(8) %1) #0 comdat {
  %3 = alloca ptr, align 8
  %4 = alloca ptr, align 8
  store ptr %0, ptr %3, align 8
  store ptr %1, ptr %4, align 8
  %5 = load ptr, ptr %3, align 8
  %6 = call noundef ptr @_ZNKSt16reverse_iteratorIPKcE4baseEv(ptr noundef nonnull align 8 dereferenceable(8) %5) #9
  %7 = load ptr, ptr %4, align 8
  %8 = call noundef ptr @_ZNKSt16reverse_iteratorIPKcE4baseEv(ptr noundef nonnull align 8 dereferenceable(8) %7) #9
  %9 = icmp eq ptr %6, %8
  ret i1 %9
}

; Function Attrs: mustprogress nounwind uwtable
define linkonce_odr hidden void @_ZNSt16reverse_iteratorIPKcEC2ERKS2_(ptr noundef nonnull align 8 dereferenceable(8) %0, ptr noundef nonnull align 8 dereferenceable(8) %1) unnamed_addr #0 comdat align 2 {
  %3 = alloca ptr, align 8
  %4 = alloca ptr, align 8
  store ptr %0, ptr %3, align 8
  store ptr %1, ptr %4, align 8
  %5 = load ptr, ptr %3, align 8
  %6 = getelementptr inbounds nuw %"class.std::reverse_iterator", ptr %5, i32 0, i32 0
  %7 = load ptr, ptr %4, align 8
  %8 = getelementptr inbounds nuw %"class.std::reverse_iterator", ptr %7, i32 0, i32 0
  %9 = load ptr, ptr %8, align 8
  store ptr %9, ptr %6, align 8
  ret void
}

; Function Attrs: mustprogress nounwind uwtable
define linkonce_odr void @_ZN4llvm10make_rangeISt16reverse_iteratorIPKcEEENS_14iterator_rangeIT_EES6_S6_(ptr dead_on_unwind noalias writable sret(%"class.llvm::iterator_range") align 8 %0, ptr noundef %1, ptr noundef %2) #0 comdat {
  %4 = alloca ptr, align 8
  %5 = alloca ptr, align 8
  %6 = alloca ptr, align 8
  %7 = alloca %"class.std::reverse_iterator", align 8
  %8 = alloca %"class.std::reverse_iterator", align 8
  store ptr %0, ptr %4, align 8
  store ptr %1, ptr %5, align 8
  store ptr %2, ptr %6, align 8
  call void @_ZNSt16reverse_iteratorIPKcEC2ERKS2_(ptr noundef nonnull align 8 dereferenceable(8) %7, ptr noundef nonnull align 8 dereferenceable(8) %1) #9
  call void @_ZNSt16reverse_iteratorIPKcEC2ERKS2_(ptr noundef nonnull align 8 dereferenceable(8) %8, ptr noundef nonnull align 8 dereferenceable(8) %2) #9
  call void @_ZN4llvm14iterator_rangeISt16reverse_iteratorIPKcEEC2ES4_S4_(ptr noundef nonnull align 8 dereferenceable(16) %0, ptr noundef %7, ptr noundef %8)
  ret void
}

; Function Attrs: mustprogress nounwind uwtable
define linkonce_odr hidden void @_ZN4llvm8adl_rendIRKNS_9StringRefEEEDTclsr10adl_detailE9rend_implclsr3stdE7forwardIT_Efp_EEEOS4_(ptr dead_on_unwind noalias writable sret(%"class.std::reverse_iterator") align 8 %0, ptr noundef nonnull align 8 dereferenceable(16) %1) #0 comdat {
  %3 = alloca ptr, align 8
  %4 = alloca ptr, align 8
  store ptr %0, ptr %3, align 8
  store ptr %1, ptr %4, align 8
  %5 = load ptr, ptr %4, align 8
  call void @_ZN4llvm10adl_detail9rend_implIRKNS_9StringRefEEEDTcl4rendclsr3stdE7forwardIT_Efp_EEEOS5_(ptr dead_on_unwind writable sret(%"class.std::reverse_iterator") align 8 %0, ptr noundef nonnull align 8 dereferenceable(16) %5)
  ret void
}

; Function Attrs: mustprogress nounwind uwtable
define linkonce_odr hidden void @_ZN4llvm10adl_rbeginIRKNS_9StringRefEEEDTclsr10adl_detailE11rbegin_implclsr3stdE7forwardIT_Efp_EEEOS4_(ptr dead_on_unwind noalias writable sret(%"class.std::reverse_iterator") align 8 %0, ptr noundef nonnull align 8 dereferenceable(16) %1) #0 comdat {
  %3 = alloca ptr, align 8
  %4 = alloca ptr, align 8
  store ptr %0, ptr %3, align 8
  store ptr %1, ptr %4, align 8
  %5 = load ptr, ptr %4, align 8
  call void @_ZN4llvm10adl_detail11rbegin_implIRKNS_9StringRefEEEDTcl6rbeginclsr3stdE7forwardIT_Efp_EEEOS5_(ptr dead_on_unwind writable sret(%"class.std::reverse_iterator") align 8 %0, ptr noundef nonnull align 8 dereferenceable(16) %5)
  ret void
}

; Function Attrs: mustprogress nounwind uwtable
define linkonce_odr hidden noundef nonnull align 8 dereferenceable(8) ptr @_ZNSt16reverse_iteratorIPKcEppEv(ptr noundef nonnull align 8 dereferenceable(8) %0) #0 comdat align 2 {
  %2 = alloca ptr, align 8
  store ptr %0, ptr %2, align 8
  %3 = load ptr, ptr %2, align 8
  %4 = getelementptr inbounds nuw %"class.std::reverse_iterator", ptr %3, i32 0, i32 0
  %5 = load ptr, ptr %4, align 8
  %6 = getelementptr inbounds i8, ptr %5, i32 -1
  store ptr %6, ptr %4, align 8
  ret ptr %3
}

; Function Attrs: mustprogress nounwind uwtable
define linkonce_odr hidden noundef nonnull align 1 dereferenceable(1) ptr @_ZNKSt16reverse_iteratorIPKcEdeEv(ptr noundef nonnull align 8 dereferenceable(8) %0) #0 comdat align 2 {
  %2 = alloca ptr, align 8
  %3 = alloca ptr, align 8
  store ptr %0, ptr %2, align 8
  %4 = load ptr, ptr %2, align 8
  %5 = getelementptr inbounds nuw %"class.std::reverse_iterator", ptr %4, i32 0, i32 0
  %6 = load ptr, ptr %5, align 8
  store ptr %6, ptr %3, align 8
  %7 = load ptr, ptr %3, align 8
  %8 = getelementptr inbounds i8, ptr %7, i32 -1
  store ptr %8, ptr %3, align 8
  ret ptr %8
}

; Function Attrs: mustprogress nounwind uwtable
define linkonce_odr noundef zeroext i1 @_ZStneIPKcEbRKSt16reverse_iteratorIT_ES6_(ptr noundef nonnull align 8 dereferenceable(8) %0, ptr noundef nonnull align 8 dereferenceable(8) %1) #0 comdat {
  %3 = alloca ptr, align 8
  %4 = alloca ptr, align 8
  store ptr %0, ptr %3, align 8
  store ptr %1, ptr %4, align 8
  %5 = load ptr, ptr %3, align 8
  %6 = load ptr, ptr %4, align 8
  %7 = call noundef zeroext i1 @_ZSteqIPKcEbRKSt16reverse_iteratorIT_ES6_(ptr noundef nonnull align 8 dereferenceable(8) %5, ptr noundef nonnull align 8 dereferenceable(8) %6)
  %8 = xor i1 %7, true
  ret i1 %8
}

; Function Attrs: mustprogress nounwind uwtable
define linkonce_odr hidden void @_ZNK4llvm14iterator_rangeISt16reverse_iteratorIPKcEE3endEv(ptr dead_on_unwind noalias writable sret(%"class.std::reverse_iterator") align 8 %0, ptr noundef nonnull align 8 dereferenceable(16) %1) #0 comdat align 2 {
  %3 = alloca ptr, align 8
  %4 = alloca ptr, align 8
  store ptr %0, ptr %3, align 8
  store ptr %1, ptr %4, align 8
  %5 = load ptr, ptr %4, align 8
  %6 = getelementptr inbounds nuw %"class.llvm::iterator_range", ptr %5, i32 0, i32 1
  call void @_ZNSt16reverse_iteratorIPKcEC2ERKS2_(ptr noundef nonnull align 8 dereferenceable(8) %0, ptr noundef nonnull align 8 dereferenceable(8) %6) #9
  ret void
}

; Function Attrs: mustprogress nounwind uwtable
define linkonce_odr hidden void @_ZNK4llvm14iterator_rangeISt16reverse_iteratorIPKcEE5beginEv(ptr dead_on_unwind noalias writable sret(%"class.std::reverse_iterator") align 8 %0, ptr noundef nonnull align 8 dereferenceable(16) %1) #0 comdat align 2 {
  %3 = alloca ptr, align 8
  %4 = alloca ptr, align 8
  store ptr %0, ptr %3, align 8
  store ptr %1, ptr %4, align 8
  %5 = load ptr, ptr %4, align 8
  %6 = getelementptr inbounds nuw %"class.llvm::iterator_range", ptr %5, i32 0, i32 0
  call void @_ZNSt16reverse_iteratorIPKcEC2ERKS2_(ptr noundef nonnull align 8 dereferenceable(8) %0, ptr noundef nonnull align 8 dereferenceable(8) %6) #9
  ret void
}

; Function Attrs: mustprogress nounwind uwtable
define linkonce_odr void @_ZN4llvm7reverseIRKNS_9StringRefEEEDaOT_(ptr dead_on_unwind noalias writable sret(%"class.llvm::iterator_range") align 8 %0, ptr noundef nonnull align 8 dereferenceable(16) %1) #0 comdat {
  %3 = alloca ptr, align 8
  %4 = alloca ptr, align 8
  %5 = alloca %"class.std::reverse_iterator", align 8
  %6 = alloca %"class.std::reverse_iterator", align 8
  store ptr %0, ptr %3, align 8
  store ptr %1, ptr %4, align 8
  %7 = load ptr, ptr %4, align 8
  call void @_ZN4llvm10adl_rbeginIRKNS_9StringRefEEEDTclsr10adl_detailE11rbegin_implclsr3stdE7forwardIT_Efp_EEEOS4_(ptr dead_on_unwind writable sret(%"class.std::reverse_iterator") align 8 %5, ptr noundef nonnull align 8 dereferenceable(16) %7)
  %8 = load ptr, ptr %4, align 8
  call void @_ZN4llvm8adl_rendIRKNS_9StringRefEEEDTclsr10adl_detailE9rend_implclsr3stdE7forwardIT_Efp_EEEOS4_(ptr dead_on_unwind writable sret(%"class.std::reverse_iterator") align 8 %6, ptr noundef nonnull align 8 dereferenceable(16) %8)
  call void @_ZN4llvm10make_rangeISt16reverse_iteratorIPKcEEENS_14iterator_rangeIT_EES6_S6_(ptr dead_on_unwind writable sret(%"class.llvm::iterator_range") align 8 %0, ptr noundef %5, ptr noundef %6)
  ret void
}

; Function Attrs: mustprogress nounwind uwtable
define dso_local noundef zeroext i1 @_ZNK5clang6format28IntegerLiteralSeparatorFixer14checkSeparatorEN4llvm9StringRefEi(ptr noundef nonnull align 1 dereferenceable(1) %0, ptr %1, i64 %2, i32 noundef %3) #0 align 2 {
  %5 = alloca i1, align 1
  %6 = alloca %"class.llvm::StringRef", align 8
  %7 = alloca ptr, align 8
  %8 = alloca i32, align 4
  %9 = alloca i32, align 4
  %10 = alloca ptr, align 8
  %11 = alloca %"class.llvm::iterator_range", align 8
  %12 = alloca %"class.std::reverse_iterator", align 8
  %13 = alloca %"class.std::reverse_iterator", align 8
  %14 = alloca i8, align 1
  %15 = getelementptr inbounds nuw { ptr, i64 }, ptr %6, i32 0, i32 0
  store ptr %1, ptr %15, align 8
  %16 = getelementptr inbounds nuw { ptr, i64 }, ptr %6, i32 0, i32 1
  store i64 %2, ptr %16, align 8
  store ptr %0, ptr %7, align 8
  store i32 %3, ptr %8, align 4
  %17 = load ptr, ptr %7, align 8
  store i32 0, ptr %9, align 4
  call void @_ZN4llvm7reverseIRKNS_9StringRefEEEDaOT_(ptr dead_on_unwind writable sret(%"class.llvm::iterator_range") align 8 %11, ptr noundef nonnull align 8 dereferenceable(16) %6)
  store ptr %11, ptr %10, align 8
  %18 = load ptr, ptr %10, align 8
  call void @_ZNK4llvm14iterator_rangeISt16reverse_iteratorIPKcEE5beginEv(ptr dead_on_unwind writable sret(%"class.std::reverse_iterator") align 8 %12, ptr noundef nonnull align 8 dereferenceable(16) %18)
  %19 = load ptr, ptr %10, align 8
  call void @_ZNK4llvm14iterator_rangeISt16reverse_iteratorIPKcEE3endEv(ptr dead_on_unwind writable sret(%"class.std::reverse_iterator") align 8 %13, ptr noundef nonnull align 8 dereferenceable(16) %19)
  br label %20

20:                                               ; preds = %46, %4
  %21 = call noundef zeroext i1 @_ZStneIPKcEbRKSt16reverse_iteratorIT_ES6_(ptr noundef nonnull align 8 dereferenceable(8) %12, ptr noundef nonnull align 8 dereferenceable(8) %13)
  br i1 %21, label %22, label %48

22:                                               ; preds = %20
  %23 = call noundef nonnull align 1 dereferenceable(1) ptr @_ZNKSt16reverse_iteratorIPKcEdeEv(ptr noundef nonnull align 8 dereferenceable(8) %12)
  %24 = load i8, ptr %23, align 1
  store i8 %24, ptr %14, align 1
  %25 = load i8, ptr %14, align 1
  %26 = sext i8 %25 to i32
  %27 = getelementptr inbounds nuw %"class.clang::format::IntegerLiteralSeparatorFixer", ptr %17, i32 0, i32 0
  %28 = load i8, ptr %27, align 1
  %29 = sext i8 %28 to i32
  %30 = icmp eq i32 %26, %29
  br i1 %30, label %31, label %37

31:                                               ; preds = %22
  %32 = load i32, ptr %9, align 4
  %33 = load i32, ptr %8, align 4
  %34 = icmp slt i32 %32, %33
  br i1 %34, label %35, label %36

35:                                               ; preds = %31
  store i1 false, ptr %5, align 1
  br label %49

36:                                               ; preds = %31
  store i32 0, ptr %9, align 4
  br label %45

37:                                               ; preds = %22
  %38 = load i32, ptr %9, align 4
  %39 = load i32, ptr %8, align 4
  %40 = icmp eq i32 %38, %39
  br i1 %40, label %41, label %42

41:                                               ; preds = %37
  store i1 false, ptr %5, align 1
  br label %49

42:                                               ; preds = %37
  %43 = load i32, ptr %9, align 4
  %44 = add nsw i32 %43, 1
  store i32 %44, ptr %9, align 4
  br label %45

45:                                               ; preds = %42, %36
  br label %46

46:                                               ; preds = %45
  %47 = call noundef nonnull align 8 dereferenceable(8) ptr @_ZNSt16reverse_iteratorIPKcEppEv(ptr noundef nonnull align 8 dereferenceable(8) %12)
  br label %20

48:                                               ; preds = %20
  store i1 true, ptr %5, align 1
  br label %49

49:                                               ; preds = %48, %41, %35
  %50 = load i1, ptr %5, align 1
  ret i1 %50
}