; Function Attrs: mustprogress nofree norecurse nosync nounwind willreturn memory(argmem: read) uwtable
define dso_local noundef zeroext i1 @_ZNK5clang6format28IntegerLiteralSeparatorFixer14checkSeparatorEN4llvm9StringRefEi(ptr nocapture noundef nonnull readonly align 1 dereferenceable(1) %0, ptr readonly %1, i64 %2, i32 noundef %3) local_unnamed_addr #4 align 2 {
  %.not16 = icmp eq i64 %2, 0
  br i1 %.not16, label %._crit_edge, label %.lr.ph

.lr.ph:                                           ; preds = %4
  %5 = getelementptr inbounds i8, ptr %1, i64 %2
  %6 = load i8, ptr %0, align 1
  br label %7

7:                                                ; preds = %.lr.ph, %17
  %.0918 = phi i32 [ 0, %.lr.ph ], [ %.1, %17 ]
  %.sroa.010.017 = phi ptr [ %5, %.lr.ph ], [ %8, %17 ]
  %8 = getelementptr inbounds i8, ptr %.sroa.010.017, i64 -1
  %9 = load i8, ptr %8, align 1
  %10 = icmp eq i8 %9, %6
  br i1 %10, label %11, label %13

11:                                               ; preds = %7
  %12 = icmp slt i32 %.0918, %3
  br i1 %12, label %._crit_edge, label %17

13:                                               ; preds = %7
  %14 = icmp eq i32 %.0918, %3
  br i1 %14, label %._crit_edge, label %15

15:                                               ; preds = %13
  %16 = add nsw i32 %.0918, 1
  br label %17

17:                                               ; preds = %11, %15
  %.1 = phi i32 [ %16, %15 ], [ 0, %11 ]
  %.not = icmp eq ptr %8, %1
  br i1 %.not, label %._crit_edge, label %7

._crit_edge:                                      ; preds = %11, %13, %17, %4
  %.not.lcssa = phi i1 [ true, %4 ], [ true, %17 ], [ false, %13 ], [ false, %11 ]
  ret i1 %.not.lcssa
}